; ModuleID = 'bench/boost/original/permissions.ll'
source_filename = "bench/boost/original/permissions.ll"
target datalayout = "e-m:e-p270:32:32-p271:32:32-p272:64:64-i64:64-i128:128-f80:128-n8:16:32:64-S128"
target triple = "x86_64-pc-linux-gnu"

@_ZN5boost3log11v2_mt_posix11permissionsC1ERKNS_12interprocess11permissionsE = unnamed_addr alias void (ptr, ptr), ptr @_ZN5boost3log11v2_mt_posix11permissionsC2ERKNS_12interprocess11permissionsE

; Function Attrs: mustprogress nofree norecurse nosync nounwind willreturn memory(argmem: readwrite) uwtable
define void @_ZN5boost3log11v2_mt_posix11permissionsC2ERKNS_12interprocess11permissionsE(ptr nocapture noundef nonnull writeonly align 4 dereferenceable(4) %0, ptr nocapture noundef nonnull readonly align 4 dereferenceable(4) %1) unnamed_addr #0 align 2 {
  %3 = load i32, ptr %1, align 4, !tbaa !3
  store i32 %3, ptr %0, align 4, !tbaa !8
  ret void
}


!llvm.module.flags = !{!0, !1, !2}

!0 = !{i32 1, !"wchar_size", i32 4}
!1 = !{i32 8, !"PIC Level", i32 2}
!2 = !{i32 7, !"uwtable", i32 2}
!3 = !{!4, !5, i64 0}
!4 = !{!"_ZTSN5boost12interprocess11permissionsE", !5, i64 0}
!5 = !{!"int", !6, i64 0}
!6 = !{!"omnipotent char", !7, i64 0}
!7 = !{!"Simple C++ TBAA"}
!8 = !{!9, !5, i64 0}
!9 = !{!"_ZTSN5boost3log11v2_mt_posix11permissionsE", !5, i64 0}
